Certificate:
    Data:
        Version: 3 (0x2)
        Serial Number: 1 (0x1)
    Signature Algorithm: sha256WithRSAEncryption
        Issuer: C=LT, ST=Kaunas, L=Kaunas, O=KTU, OU=IF, CN=lab.darbo.CA/emailAddress=stud@if.ktu.lt
        Validity
            Not Before: Oct 11 13:42:52 2017 GMT
            Not After : Oct 11 13:42:52 2018 GMT
        Subject: C=LT, ST=Kaunas, O=KTU, OU=IF, CN=ca.ssl.lab/emailAddress=stud@if.ktu.lt
        Subject Public Key Info:
            Public Key Algorithm: rsaEncryption
                Public-Key: (2048 bit)
                Modulus:
                    00:c6:bb:ce:6c:3b:29:84:23:11:51:5e:94:09:b0:
                    a8:eb:bb:9f:44:1f:e3:9a:c3:6a:8d:89:90:b7:94:
                    0f:36:25:b0:9c:fb:5e:b1:ad:6f:0e:7a:a1:c8:4a:
                    55:20:88:23:b7:44:b8:64:c5:59:fe:ac:ec:2b:0b:
                    c4:11:e4:c6:87:63:71:b4:68:68:c7:25:0f:8e:1a:
                    a8:a7:17:91:be:3a:7c:87:1b:1b:a0:40:3a:9e:45:
                    6b:77:f3:6d:a4:c9:27:ae:95:fd:53:e1:46:a0:0c:
                    02:52:96:fd:f8:b5:2b:ff:ac:87:de:8c:86:34:24:
                    4b:2a:a6:34:50:bc:f5:9c:99:25:b4:6b:5e:f9:d3:
                    86:2f:12:39:52:a1:fd:ac:e1:91:a0:7d:65:04:c0:
                    45:db:bc:b8:00:36:b6:9c:4d:d5:2b:80:a0:8e:64:
                    71:51:02:40:3f:5f:22:6d:46:43:f2:d5:e8:34:4b:
                    53:0a:78:24:dd:cc:ad:cd:c6:6b:60:8c:62:ac:05:
                    08:8f:3c:28:6f:a2:75:27:a1:ff:24:62:98:59:d3:
                    c1:fc:e8:d4:8b:d0:51:37:3f:6a:b4:52:ff:82:96:
                    91:38:39:e3:fb:d0:19:23:de:f5:50:b8:1d:62:96:
                    c5:ef:1e:b5:bd:98:8a:43:61:19:eb:c5:ee:df:ca:
                    a5:6f
                Exponent: 65537 (0x10001)
        X509v3 extensions:
            X509v3 Basic Constraints: 
                CA:FALSE
            Netscape Comment: 
                OpenSSL Generated Certificate
            X509v3 Subject Key Identifier: 
                40:1E:2C:8C:07:66:D6:C2:1D:29:A4:74:63:0C:3E:23:41:75:1F:BE
            X509v3 Authority Key Identifier: 
                keyid:D4:D5:A5:E9:A2:B7:F9:03:BE:67:37:CB:0C:16:A7:BB:47:D3:19:4C

    Signature Algorithm: sha256WithRSAEncryption
         10:2b:d5:da:a0:bc:f8:13:24:3f:7e:d4:15:8e:ce:7a:c3:7c:
         11:e1:e4:a9:68:3c:13:22:6c:63:53:fe:ce:ef:ee:5a:6b:09:
         8b:4b:57:83:48:4d:4d:09:e4:07:bb:10:3d:dd:3b:46:7e:4e:
         e0:7a:b1:ba:6b:90:da:df:7b:ea:ba:44:25:62:65:1f:8e:69:
         53:4f:14:6a:6b:b3:3b:2c:d5:87:e5:81:1a:da:6a:9f:4f:6e:
         d1:af:d9:b1:90:67:70:57:48:c0:f0:77:05:6f:92:2c:6d:57:
         69:f2:3d:82:e1:a0:d5:54:47:39:c5:81:3a:ea:88:b1:d4:34:
         77:6f:df:4b:94:cf:c0:62:81:5c:47:95:83:a8:09:c9:43:1d:
         7d:c2:ba:2d:7d:58:64:29:2d:fa:e0:e2:93:ba:5b:07:ce:00:
         23:96:59:aa:ba:a8:5c:44:8f:eb:47:b6:fd:90:b3:c9:dd:0d:
         31:8c:7e:09:c4:cf:33:a7:b5:0a:b3:50:58:09:94:8c:b3:69:
         8b:5a:c6:2a:9c:a0:c5:8b:bc:2a:78:21:2b:47:af:02:ec:8a:
         6f:05:d8:48:84:fc:a0:d9:46:cb:79:80:81:26:84:4a:30:48:
         ad:d2:70:ee:a2:f7:cc:98:2f:5e:36:02:fb:87:e0:23:51:1a:
         28:52:33:9c
-----BEGIN CERTIFICATE-----
MIID5DCCAsygAwIBAgIBATANBgkqhkiG9w0BAQsFADCBgDELMAkGA1UEBhMCTFQx
DzANBgNVBAgMBkthdW5hczEPMA0GA1UEBwwGS2F1bmFzMQwwCgYDVQQKDANLVFUx
CzAJBgNVBAsMAklGMRUwEwYDVQQDDAxsYWIuZGFyYm8uQ0ExHTAbBgkqhkiG9w0B
CQEWDnN0dWRAaWYua3R1Lmx0MB4XDTE3MTAxMTEzNDI1MloXDTE4MTAxMTEzNDI1
MlowbTELMAkGA1UEBhMCTFQxDzANBgNVBAgMBkthdW5hczEMMAoGA1UECgwDS1RV
MQswCQYDVQQLDAJJRjETMBEGA1UEAwwKY2Euc3NsLmxhYjEdMBsGCSqGSIb3DQEJ
ARYOc3R1ZEBpZi5rdHUubHQwggEiMA0GCSqGSIb3DQEBAQUAA4IBDwAwggEKAoIB
AQDGu85sOymEIxFRXpQJsKjru59EH+Oaw2qNiZC3lA82JbCc+16xrW8OeqHISlUg
iCO3RLhkxVn+rOwrC8QR5MaHY3G0aGjHJQ+OGqinF5G+OnyHGxugQDqeRWt3822k
ySeulf1T4UagDAJSlv34tSv/rIfejIY0JEsqpjRQvPWcmSW0a17504YvEjlSof2s
4ZGgfWUEwEXbvLgANracTdUrgKCOZHFRAkA/XyJtRkPy1eg0S1MKeCTdzK3Nxmtg
jGKsBQiPPChvonUnof8kYphZ08H86NSL0FE3P2q0Uv+ClpE4OeP70Bkj3vVQuB1i
lsXvHrW9mIpDYRnrxe7fyqVvAgMBAAGjezB5MAkGA1UdEwQCMAAwLAYJYIZIAYb4
QgENBB8WHU9wZW5TU0wgR2VuZXJhdGVkIENlcnRpZmljYXRlMB0GA1UdDgQWBBRA
HiyMB2bWwh0ppHRjDD4jQXUfvjAfBgNVHSMEGDAWgBTU1aXporf5A75nN8sMFqe7
R9MZTDANBgkqhkiG9w0BAQsFAAOCAQEAECvV2qC8+BMkP37UFY7OesN8EeHkqWg8
EyJsY1P+zu/uWmsJi0tXg0hNTQnkB7sQPd07Rn5O4HqxumuQ2t976rpEJWJlH45p
U08UamuzOyzVh+WBGtpqn09u0a/ZsZBncFdIwPB3BW+SLG1XafI9guGg1VRHOcWB
OuqIsdQ0d2/fS5TPwGKBXEeVg6gJyUMdfcK6LX1YZCkt+uDik7pbB84AI5ZZqrqo
XESP60e2/ZCzyd0NMYx+CcTPM6e1CrNQWAmUjLNpi1rGKpygxYu8KnghK0evAuyK
bwXYSIT8oNlGy3mAgSaESjBIrdJw7qL3zJgvXjYC+4fgI1EaKFIznA==
-----END CERTIFICATE-----
